(ialloc_overhead
OverheadSet
p0
(dp1
S'_overhead'
p2
(dp3
S'CXS'
p4
(ialloc_overhead
Overhead
p5
(dp6
S'_yvalues'
p7
(lp8
I0
aF0.0008454087055873
aF0.0008454087055873
aF0.0008454087055873
aF0.0008454087055873
aF0.0008513041637853
aF0.0008678114467395
aF0.0008678114467395
aF0.0008678114467395
aF0.0008678114467395
aF0.0008678114467395
aF0.0008678114467395
aF0.0008678114467395
aF0.0008678114467395
aF0.0008678114467395
aF0.0008678114467395
aF0.0008961096460897
aF0.0008961096460897
aF0.0008961096460897
aF0.0008961096460897
aF0.0008961096460897
aF0.0008961096460897
aF0.0008961096460897
aF0.0008996469210085
aF0.0008996469210085
aF0.0008996469210085
aF0.0008996469210085
aF0.0008996469210085
aF0.0008996469210085
aF0.0008996469210085
aF0.0008996469210085
aF0.0008996469210085
aF0.0008996469210085
aF0.0009326614869171
aF0.0009326614869171
aF0.0009326614869171
aF0.0009326614869171
aF0.0009326614869171
aF0.0009326614869171
aF0.0009326614869171
aF0.0009326614869171
aF0.0009326614869171
aF0.0009326614869171
aF0.0009326614869171
aF0.0009326614869171
aF0.0009326614869171
aF0.0009326614869171
asS'_xvalues'
p9
(lp10
I0
aI1
aI2
aI3
aI4
aI5
aI6
aI7
aI8
aI9
aI10
aI11
aI12
aI13
aI14
aI15
aI16
aI17
aI18
aI19
aI20
aI21
aI22
aI23
aI24
aI25
aI26
aI27
aI28
aI29
aI30
aI31
aI32
aI33
aI34
aI35
aI36
aI37
aI38
aI39
aI40
aI41
aI42
aI43
aI44
aI45
aI46
asbsS'SCHED'
p11
(ialloc_overhead
Overhead
p12
(dp13
g7
(lp14
I0
aF0.001050570650876
aF0.001511595481957
aF0.001511595481957
aF0.001511595481957
aF0.001511595481957
aF0.001511595481957
aF0.001511595481957
aF0.001511595481957
aF0.001511595481957
aF0.001511595481957
aF0.001511595481957
aF0.001511595481957
aF0.001511595481957
aF0.001511595481957
aF0.001511595481957
aF0.001511595481957
aF0.001511595481957
aF0.001511595481957
aF0.001511595481957
aF0.001511595481957
aF0.001511595481957
aF0.001511595481957
aF0.001511595481957
aF0.001511595481957
aF0.001511595481957
aF0.001511595481957
aF0.001511595481957
aF0.001511595481957
aF0.001511595481957
aF0.001511595481957
aF0.001511595481957
aF0.001511595481957
aF0.001511595481957
aF0.001511595481957
aF0.001511595481957
aF0.001511595481957
aF0.001511595481957
aF0.001511595481957
aF0.001511595481957
aF0.001511595481957
aF0.001511595481957
aF0.001511595481957
aF0.001511595481957
aF0.001511595481957
aF0.001511595481957
aF0.001511595481957
asg9
(lp15
I0
aI1
aI2
aI3
aI4
aI5
aI6
aI7
aI8
aI9
aI10
aI11
aI12
aI13
aI14
aI15
aI16
aI17
aI18
aI19
aI20
aI21
aI22
aI23
aI24
aI25
aI26
aI27
aI28
aI29
aI30
aI31
aI32
aI33
aI34
aI35
aI36
aI37
aI38
aI39
aI40
aI41
aI42
aI43
aI44
aI45
aI46
asbsS'RELEASE_LATENCY'
p16
(ialloc_overhead
Overhead
p17
(dp18
g7
(lp19
I0
aF0.0001839382957763
aF0.0001839382957763
aF0.0001839382957763
aF0.0001839382957763
aF0.0001839382957763
aF0.0001839382957763
aF0.0001839382957763
aF0.0001839382957763
aF0.0001839382957763
aF0.0001839382957763
aF0.0001839382957763
aF0.0001839382957763
aF0.0001839382957763
aF0.0001839382957763
aF0.0001839382957763
aF0.0001839382957763
aF0.0001839382957763
aF0.0001839382957763
aF0.0001839382957763
aF0.0001839382957763
aF0.0001839382957763
aF0.0001839382957763
aF0.0001839382957763
aF0.0001839382957763
aF0.0001839382957763
aF0.0001839382957763
aF0.0001839382957763
aF0.0001839382957763
aF0.0001839382957763
aF0.0001839382957763
aF0.0001839382957763
aF0.0001839382957763
aF0.0001839382957763
aF0.0001839382957763
aF0.0001839382957763
aF0.0002016246703702
aF0.0002016246703702
aF0.0002016246703702
aF0.0002045723994692
aF0.0002045723994692
aF0.0002045723994692
aF0.0002045723994692
aF0.0002045723994692
aF0.0002045723994692
aF0.0002045723994692
aF0.0002045723994692
asg9
(lp20
I0
aI1
aI2
aI3
aI4
aI5
aI6
aI7
aI8
aI9
aI10
aI11
aI12
aI13
aI14
aI15
aI16
aI17
aI18
aI19
aI20
aI21
aI22
aI23
aI24
aI25
aI26
aI27
aI28
aI29
aI30
aI31
aI32
aI33
aI34
aI35
aI36
aI37
aI38
aI39
aI40
aI41
aI42
aI43
aI44
aI45
aI46
asbsS'SEND_RESCHED'
p21
(ialloc_overhead
Overhead
p22
(dp23
g7
(lp24
I0
aF0.0006384781228389
aF0.0006726717803871
aF0.0006797463302247
aF0.0007086340753947
aF0.0007599245617169
aF0.0007599245617169
aF0.000768178203194
aF0.000768178203194
aF0.0007746632072118
aF0.00077996911959
aF0.00077996911959
aF0.00077996911959
aF0.0007988345858234
aF0.0007988345858234
aF0.0007988345858234
aF0.0007988345858234
aF0.0008235955102549
aF0.00083774460993
aF0.00083774460993
aF0.00083774460993
aF0.0008501250721457
aF0.0008501250721457
aF0.0008501250721457
aF0.0008501250721457
aF0.0009597805946277
aF0.0009597805946277
aF0.0009597805946277
aF0.0009597805946277
aF0.0009597805946277
aF0.0009597805946277
aF0.0009597805946277
aF0.0009597805946277
aF0.0009597805946277
aF0.0009597805946277
aF0.0009597805946277
aF0.0009597805946277
aF0.0009597805946277
aF0.0009597805946277
aF0.0009597805946277
aF0.0009597805946277
aF0.0009597805946277
aF0.001064719750551
aF0.001064719750551
aF0.001064719750551
aF0.001064719750551
aF0.001147256165323
asg9
(lp25
I0
aI1
aI2
aI3
aI4
aI5
aI6
aI7
aI8
aI9
aI10
aI11
aI12
aI13
aI14
aI15
aI16
aI17
aI18
aI19
aI20
aI21
aI22
aI23
aI24
aI25
aI26
aI27
aI28
aI29
aI30
aI31
aI32
aI33
aI34
aI35
aI36
aI37
aI38
aI39
aI40
aI41
aI42
aI43
aI44
aI45
aI46
asbsS'SCHED2'
p26
(ialloc_overhead
Overhead
p27
(dp28
g7
(lp29
I0
aF0.0004999348551869
aF0.0004999348551869
aF0.0004999348551869
aF0.0005636058037249
aF0.0005848294532375
aF0.0005954412779938
aF0.0006013367361918
aF0.0006013367361918
aF0.0006013367361918
aF0.0006013367361918
aF0.0006013367361918
aF0.0006013367361918
aF0.0006013367361918
aF0.0006013367361918
aF0.0006013367361918
aF0.0006013367361918
aF0.0006013367361918
aF0.0006013367361918
aF0.0006013367361918
aF0.0006013367361918
aF0.0006013367361918
aF0.0006013367361918
aF0.0006013367361918
aF0.0006013367361918
aF0.0006013367361918
aF0.0006013367361918
aF0.0006013367361918
aF0.0006013367361918
aF0.0006013367361918
aF0.0006013367361918
aF0.0006013367361918
aF0.0006013367361918
aF0.0006013367361918
aF0.0006013367361918
aF0.0006013367361918
aF0.0006013367361918
aF0.0006013367361918
aF0.0006013367361918
aF0.0006013367361918
aF0.0006013367361918
aF0.0006013367361918
aF0.0006013367361918
aF0.0006013367361918
aF0.0006013367361918
aF0.0006013367361918
aF0.0006013367361918
asg9
(lp30
I0
aI1
aI2
aI3
aI4
aI5
aI6
aI7
aI8
aI9
aI10
aI11
aI12
aI13
aI14
aI15
aI16
aI17
aI18
aI19
aI20
aI21
aI22
aI23
aI24
aI25
aI26
aI27
aI28
aI29
aI30
aI31
aI32
aI33
aI34
aI35
aI36
aI37
aI38
aI39
aI40
aI41
aI42
aI43
aI44
aI45
aI46
asbsS'RELEASE'
p31
(ialloc_overhead
Overhead
p32
(dp33
g7
(lp34
I0
aF0.0006249185689836
aF0.0006249185689836
aF0.0006437840352171
aF0.0006685449596485
aF0.0006850522426028
aF0.0006980222506383
aF0.0007062758921155
aF0.0007121713503134
aF0.0007121713503134
aF0.000719245900151
aF0.0007286786332677
aF0.0007286786332677
aF0.0007286786332677
aF0.0007286786332677
aF0.0007286786332677
aF0.0007298577249073
aF0.0007416486413032
aF0.0007416486413032
aF0.0007416486413032
aF0.0007416486413032
aF0.0007416486413032
aF0.000745185916222
aF0.0007699468406534
aF0.0007699468406534
aF0.0007699468406534
aF0.0007723050239326
aF0.0007723050239326
aF0.0007723050239326
aF0.0007723050239326
aF0.0007723050239326
aF0.0007723050239326
aF0.0007723050239326
aF0.0008194686895163
aF0.0008194686895163
aF0.0008194686895163
aF0.0008194686895163
aF0.0008194686895163
aF0.0008194686895163
aF0.0008194686895163
aF0.0008194686895163
aF0.0008194686895163
aF0.0008630950801812
aF0.0008630950801812
aF0.0009208705705212
aF0.0009208705705212
aF0.0009208705705212
asg9
(lp35
I0
aI1
aI2
aI3
aI4
aI5
aI6
aI7
aI8
aI9
aI10
aI11
aI12
aI13
aI14
aI15
aI16
aI17
aI18
aI19
aI20
aI21
aI22
aI23
aI24
aI25
aI26
aI27
aI28
aI29
aI30
aI31
aI32
aI33
aI34
aI35
aI36
aI37
aI38
aI39
aI40
aI41
aI42
aI43
aI44
aI45
aI46
asbsS'TICK'
p36
(ialloc_overhead
Overhead
p37
(dp38
g7
(lp39
I0
aF0.0002452510610351
aF0.0002452510610351
aF0.0002605792523498
aF0.0002688328938269
aF0.0002888774517
aF0.0002888774517
aF0.0002947729098979
aF0.0002959520015375
aF0.0002959520015375
aF0.0002959520015375
aF0.0002959520015375
aF0.0002971310931771
aF0.0002971310931771
aF0.0003042056430147
aF0.0003101011012126
aF0.0003101011012126
aF0.000314817467771
aF0.0003171756510502
aF0.0003171756510502
aF0.0003195338343294
aF0.0003218920176086
aF0.0003218920176086
aF0.0003218920176086
aF0.0003218920176086
aF0.0003218920176086
aF0.0003218920176086
aF0.0003218920176086
aF0.0003218920176086
aF0.0003289665674461
aF0.0003289665674461
aF0.0003336829340045
aF0.0003336829340045
aF0.0003336829340045
aF0.0003336829340045
aF0.0003372202089232
aF0.0003395783922024
aF0.0003395783922024
aF0.0003395783922024
aF0.0003395783922024
aF0.0003395783922024
aF0.0003395783922024
aF0.0003419365754816
aF0.0003419365754816
aF0.0003419365754816
aF0.0003419365754816
aF0.0003419365754816
asg9
(lp40
I0
aI1
aI2
aI3
aI4
aI5
aI6
aI7
aI8
aI9
aI10
aI11
aI12
aI13
aI14
aI15
aI16
aI17
aI18
aI19
aI20
aI21
aI22
aI23
aI24
aI25
aI26
aI27
aI28
aI29
aI30
aI31
aI32
aI33
aI34
aI35
aI36
aI37
aI38
aI39
aI40
aI41
aI42
aI43
aI44
aI45
aI46
asbssb.