(dp0
I32
F0.0002523256108726
sI1
F3.065638262939e-05
sI2
F4.952184886285e-05
sI4096
F0.02564642225276
sI4
F8.725278132979e-05
sI6144
F0.02662860558854
sI1024
F0.01472921276178
sI8192
F0.0303380278867
sI8
F0.0001308791719947
sI64
F0.0004115029822175
sI128
F0.0007357531831053
sI3072
F0.02564642225276
sI10240
F0.03428562669605
sI256
F0.001621251004439
sI16
F0.0001709682877408
sI9216
F0.03208544169657
sI5120
F0.02564642225276
sI512
F0.004698680183773
sI7168
F0.02836187029874
sI2048
F0.02564642225276
s.