(dp0
I32
F0.0003230711092481
sI1
F4.716366558367e-06
sI2
F2.240274115224e-05
sI4096
F0.02594001607102
sI4
F0.0001014018810049
sI6144
F0.02699648218009
sI1024
F0.01481882372639
sI8192
F0.03041231065999
sI8
F0.0001285209887155
sI64
F0.0005282330545371
sI128
F0.0009774669692216
sI3072
F0.02594001607102
sI10240
F0.03444480406739
sI256
F0.002023321253539
sI16
F0.0002075201285682
sI9216
F0.0325806601852
sI5120
F0.02594001607102
sI512
F0.004559547370301
sI7168
F0.02865428502536
sI2048
F0.02594001607102
s.