(lp0
(lp1
(dp2
S'ways_of_associativity'
p3
S'8'
p4
sS'shared_cpu_list'
p5
S'0'
p6
sS'shared_cpu_map'
p7
S'00000000,00000000,00000000,00000000,00000000,00000000,00000000,00000001'
p8
sS'level'
p9
S'1'
p10
sS'physical_line_partition'
p11
g10
sS'coherency_line_size'
p12
S'64'
p13
sS'number_of_sets'
p14
S'64'
p15
sS'type'
p16
S'Data'
p17
sS'size'
p18
S'32K'
p19
sa(dp20
S'ways_of_associativity'
p21
g4
sS'shared_cpu_list'
p22
g6
sS'shared_cpu_map'
p23
S'00000000,00000000,00000000,00000000,00000000,00000000,00000000,00000001'
p24
sS'level'
p25
g10
sS'physical_line_partition'
p26
g10
sS'coherency_line_size'
p27
S'64'
p28
sS'number_of_sets'
p29
S'64'
p30
sS'type'
p31
S'Instruction'
p32
sS'size'
p33
S'32K'
p34
sa(dp35
S'ways_of_associativity'
p36
g4
sS'shared_cpu_list'
p37
g6
sS'shared_cpu_map'
p38
S'00000000,00000000,00000000,00000000,00000000,00000000,00000000,00000001'
p39
sS'level'
p40
S'2'
p41
sS'physical_line_partition'
p42
g10
sS'coherency_line_size'
p43
S'64'
p44
sS'number_of_sets'
p45
S'512'
p46
sS'type'
p47
S'Unified'
p48
sS'size'
p49
S'256K'
p50
sa(dp51
S'ways_of_associativity'
p52
S'16'
p53
sS'shared_cpu_list'
p54
S'0-3'
p55
sS'shared_cpu_map'
p56
S'00000000,00000000,00000000,00000000,00000000,00000000,00000000,0000000f'
p57
sS'level'
p58
S'3'
p59
sS'physical_line_partition'
p60
g10
sS'coherency_line_size'
p61
S'64'
p62
sS'number_of_sets'
p63
S'8192'
p64
sS'type'
p65
S'Unified'
p66
sS'size'
p67
S'8192K'
p68
saa(lp69
(dp70
S'ways_of_associativity'
p71
g4
sS'shared_cpu_list'
p72
g10
sS'shared_cpu_map'
p73
S'00000000,00000000,00000000,00000000,00000000,00000000,00000000,00000002'
p74
sS'level'
p75
g10
sS'physical_line_partition'
p76
g10
sS'coherency_line_size'
p77
S'64'
p78
sS'number_of_sets'
p79
S'64'
p80
sS'type'
p81
S'Data'
p82
sS'size'
p83
S'32K'
p84
sa(dp85
S'ways_of_associativity'
p86
g4
sS'shared_cpu_list'
p87
g10
sS'shared_cpu_map'
p88
S'00000000,00000000,00000000,00000000,00000000,00000000,00000000,00000002'
p89
sS'level'
p90
g10
sS'physical_line_partition'
p91
g10
sS'coherency_line_size'
p92
S'64'
p93
sS'number_of_sets'
p94
S'64'
p95
sS'type'
p96
S'Instruction'
p97
sS'size'
p98
S'32K'
p99
sa(dp100
S'ways_of_associativity'
p101
g4
sS'shared_cpu_list'
p102
g10
sS'shared_cpu_map'
p103
S'00000000,00000000,00000000,00000000,00000000,00000000,00000000,00000002'
p104
sS'level'
p105
g41
sS'physical_line_partition'
p106
g10
sS'coherency_line_size'
p107
S'64'
p108
sS'number_of_sets'
p109
S'512'
p110
sS'type'
p111
S'Unified'
p112
sS'size'
p113
S'256K'
p114
sa(dp115
S'ways_of_associativity'
p116
S'16'
p117
sS'shared_cpu_list'
p118
S'0-3'
p119
sS'shared_cpu_map'
p120
S'00000000,00000000,00000000,00000000,00000000,00000000,00000000,0000000f'
p121
sS'level'
p122
g59
sS'physical_line_partition'
p123
g10
sS'coherency_line_size'
p124
S'64'
p125
sS'number_of_sets'
p126
S'8192'
p127
sS'type'
p128
S'Unified'
p129
sS'size'
p130
S'8192K'
p131
saa(lp132
(dp133
S'ways_of_associativity'
p134
g4
sS'shared_cpu_list'
p135
g41
sS'shared_cpu_map'
p136
S'00000000,00000000,00000000,00000000,00000000,00000000,00000000,00000004'
p137
sS'level'
p138
g10
sS'physical_line_partition'
p139
g10
sS'coherency_line_size'
p140
S'64'
p141
sS'number_of_sets'
p142
S'64'
p143
sS'type'
p144
S'Data'
p145
sS'size'
p146
S'32K'
p147
sa(dp148
S'ways_of_associativity'
p149
g4
sS'shared_cpu_list'
p150
g41
sS'shared_cpu_map'
p151
S'00000000,00000000,00000000,00000000,00000000,00000000,00000000,00000004'
p152
sS'level'
p153
g10
sS'physical_line_partition'
p154
g10
sS'coherency_line_size'
p155
S'64'
p156
sS'number_of_sets'
p157
S'64'
p158
sS'type'
p159
S'Instruction'
p160
sS'size'
p161
S'32K'
p162
sa(dp163
S'ways_of_associativity'
p164
g4
sS'shared_cpu_list'
p165
g41
sS'shared_cpu_map'
p166
S'00000000,00000000,00000000,00000000,00000000,00000000,00000000,00000004'
p167
sS'level'
p168
g41
sS'physical_line_partition'
p169
g10
sS'coherency_line_size'
p170
S'64'
p171
sS'number_of_sets'
p172
S'512'
p173
sS'type'
p174
S'Unified'
p175
sS'size'
p176
S'256K'
p177
sa(dp178
S'ways_of_associativity'
p179
S'16'
p180
sS'shared_cpu_list'
p181
S'0-3'
p182
sS'shared_cpu_map'
p183
S'00000000,00000000,00000000,00000000,00000000,00000000,00000000,0000000f'
p184
sS'level'
p185
g59
sS'physical_line_partition'
p186
g10
sS'coherency_line_size'
p187
S'64'
p188
sS'number_of_sets'
p189
S'8192'
p190
sS'type'
p191
S'Unified'
p192
sS'size'
p193
S'8192K'
p194
saa(lp195
(dp196
S'ways_of_associativity'
p197
g4
sS'shared_cpu_list'
p198
g59
sS'shared_cpu_map'
p199
S'00000000,00000000,00000000,00000000,00000000,00000000,00000000,00000008'
p200
sS'level'
p201
g10
sS'physical_line_partition'
p202
g10
sS'coherency_line_size'
p203
S'64'
p204
sS'number_of_sets'
p205
S'64'
p206
sS'type'
p207
S'Data'
p208
sS'size'
p209
S'32K'
p210
sa(dp211
S'ways_of_associativity'
p212
g4
sS'shared_cpu_list'
p213
g59
sS'shared_cpu_map'
p214
S'00000000,00000000,00000000,00000000,00000000,00000000,00000000,00000008'
p215
sS'level'
p216
g10
sS'physical_line_partition'
p217
g10
sS'coherency_line_size'
p218
S'64'
p219
sS'number_of_sets'
p220
S'64'
p221
sS'type'
p222
S'Instruction'
p223
sS'size'
p224
S'32K'
p225
sa(dp226
S'ways_of_associativity'
p227
g4
sS'shared_cpu_list'
p228
g59
sS'shared_cpu_map'
p229
S'00000000,00000000,00000000,00000000,00000000,00000000,00000000,00000008'
p230
sS'level'
p231
g41
sS'physical_line_partition'
p232
g10
sS'coherency_line_size'
p233
S'64'
p234
sS'number_of_sets'
p235
S'512'
p236
sS'type'
p237
S'Unified'
p238
sS'size'
p239
S'256K'
p240
sa(dp241
S'ways_of_associativity'
p242
S'16'
p243
sS'shared_cpu_list'
p244
S'0-3'
p245
sS'shared_cpu_map'
p246
S'00000000,00000000,00000000,00000000,00000000,00000000,00000000,0000000f'
p247
sS'level'
p248
g59
sS'physical_line_partition'
p249
g10
sS'coherency_line_size'
p250
S'64'
p251
sS'number_of_sets'
p252
S'8192'
p253
sS'type'
p254
S'Unified'
p255
sS'size'
p256
S'8192K'
p257
saa.